target datalayout = "e-m:e-p270:32:32-p271:32:32-p272:64:64-i64:64-i128:128-f80:128-n8:16:32:64-S128"
target triple = "x86_64-pc-linux-gnu"

@.str.38 = private unnamed_addr constant [15 x i8] c"bad step value\00", align 1

; Function Attrs: nounwind uwtable
define internal i32 @_handle_step(ptr noundef %0, i32 noundef %1, ptr noundef %2) #0 {
  %4 = alloca i32, align 4
  %5 = alloca ptr, align 8
  %6 = alloca i32, align 4
  %7 = alloca ptr, align 8
  %8 = alloca ptr, align 8
  %9 = alloca i64, align 8
  %10 = alloca ptr, align 8
  %11 = alloca i32, align 4
  %12 = alloca i32, align 4
  store ptr %0, ptr %5, align 8
  store i32 %1, ptr %6, align 4
  store ptr %2, ptr %7, align 8
  call void @llvm.lifetime.start.p0(i64 8, ptr %8) #6
  call void @llvm.lifetime.start.p0(i64 8, ptr %9) #6
  call void @llvm.lifetime.start.p0(i64 8, ptr %10) #6
  %13 = load ptr, ptr %7, align 8
  %14 = load ptr, ptr %13, align 8
  %15 = load i8, ptr %14, align 1
  %16 = sext i8 %15 to i32
  %17 = icmp ne i32 %16, 47
  br i1 %17, label %18, label %19

18:                                               ; preds = %3
  store i32 0, ptr %4, align 4
  store i32 1, ptr %11, align 4
  br label %74

19:                                               ; preds = %3
  %20 = load ptr, ptr %7, align 8
  %21 = load ptr, ptr %20, align 8
  %22 = getelementptr inbounds nuw i8, ptr %21, i32 1
  store ptr %22, ptr %20, align 8
  %23 = load ptr, ptr %7, align 8
  %24 = load ptr, ptr %23, align 8
  %25 = call i64 @strtol(ptr noundef %24, ptr noundef %8, i32 noundef 10) #6
  store i64 %25, ptr %9, align 8
  %26 = load ptr, ptr %7, align 8
  %27 = load ptr, ptr %26, align 8
  %28 = load ptr, ptr %8, align 8
  %29 = icmp eq ptr %27, %28
  br i1 %29, label %38, label %30

30:                                               ; preds = %19
  %31 = load i64, ptr %9, align 8
  %32 = icmp sle i64 %31, 1
  br i1 %32, label %38, label %33

33:                                               ; preds = %30
  %34 = load i64, ptr %9, align 8
  %35 = load ptr, ptr %5, align 8
  %36 = call i64 @bit_size(ptr noundef %35)
  %37 = icmp sge i64 %34, %36
  br i1 %37, label %38, label %40

38:                                               ; preds = %33, %30, %19
  %39 = call i32 (ptr, ...) @error(ptr noundef @.str.38)
  store i32 -1, ptr %4, align 4
  store i32 1, ptr %11, align 4
  br label %74

40:                                               ; preds = %33
  %41 = load ptr, ptr %8, align 8
  %42 = load ptr, ptr %7, align 8
  store ptr %41, ptr %42, align 8
  %43 = load ptr, ptr %5, align 8
  %44 = call i64 @bit_size(ptr noundef %43)
  %45 = call ptr @bit_alloc(i64 noundef %44)
  store ptr %45, ptr %10, align 8
  call void @llvm.lifetime.start.p0(i64 4, ptr %12) #6
  %46 = load i32, ptr %6, align 4
  store i32 %46, ptr %12, align 4
  br label %47

47:                                               ; preds = %58, %40
  %48 = load i32, ptr %12, align 4
  %49 = sext i32 %48 to i64
  %50 = load ptr, ptr %10, align 8
  %51 = call i64 @bit_size(ptr noundef %50)
  %52 = icmp slt i64 %49, %51
  br i1 %52, label %54, label %53

53:                                               ; preds = %47
  store i32 2, ptr %11, align 4
  call void @llvm.lifetime.end.p0(i64 4, ptr %12) #6
  br label %64

54:                                               ; preds = %47
  %55 = load ptr, ptr %10, align 8
  %56 = load i32, ptr %12, align 4
  %57 = sext i32 %56 to i64
  call void @bit_set(ptr noundef %55, i64 noundef %57)
  br label %58

58:                                               ; preds = %54
  %59 = load i64, ptr %9, align 8
  %60 = load i32, ptr %12, align 4
  %61 = sext i32 %60 to i64
  %62 = add nsw i64 %61, %59
  %63 = trunc i64 %62 to i32
  store i32 %63, ptr %12, align 4
  br label %47, !llvm.loop !16

64:                                               ; preds = %53
  %65 = load ptr, ptr %5, align 8
  %66 = load ptr, ptr %10, align 8
  call void @bit_and(ptr noundef %65, ptr noundef %66)
  br label %67

67:                                               ; preds = %64
  %68 = load ptr, ptr %10, align 8
  %69 = icmp ne ptr %68, null
  br i1 %69, label %70, label %71

70:                                               ; preds = %67
  call void @slurm_bit_free(ptr noundef %10)
  br label %71

71:                                               ; preds = %70, %67
  store ptr null, ptr %10, align 8
  br label %72

72:                                               ; preds = %71
  br label %73

73:                                               ; preds = %72
  store i32 0, ptr %4, align 4
  store i32 1, ptr %11, align 4
  br label %74

74:                                               ; preds = %73, %38, %18
  call void @llvm.lifetime.end.p0(i64 8, ptr %10) #6
  call void @llvm.lifetime.end.p0(i64 8, ptr %9) #6
  call void @llvm.lifetime.end.p0(i64 8, ptr %8) #6
  %75 = load i32, ptr %4, align 4
  ret i32 %75
}