; Function Attrs: nounwind uwtable
define internal fastcc range(i32 -1, 1) i32 @_handle_step(ptr noundef %0, i32 noundef range(i32 0, 2) %1, ptr noundef nonnull captures(none) %2) unnamed_addr #0 {
  %4 = alloca ptr, align 8
  %5 = alloca ptr, align 8
  call void @llvm.lifetime.start.p0(i64 8, ptr nonnull %4) #8
  call void @llvm.lifetime.start.p0(i64 8, ptr nonnull %5) #8
  %6 = load ptr, ptr %2, align 8
  %7 = load i8, ptr %6, align 1
  %.not = icmp eq i8 %7, 47
  br i1 %.not, label %8, label %33

8:                                                ; preds = %3
  %9 = getelementptr inbounds nuw i8, ptr %6, i64 1
  store ptr %9, ptr %2, align 8
  %10 = call i64 @strtol(ptr noundef nonnull %9, ptr noundef nonnull %4, i32 noundef 10) #8
  %11 = load ptr, ptr %2, align 8
  %12 = load ptr, ptr %4, align 8
  %13 = icmp eq ptr %11, %12
  %14 = icmp slt i64 %10, 2
  %or.cond = select i1 %13, i1 true, i1 %14
  br i1 %or.cond, label %17, label %15

15:                                               ; preds = %8
  %16 = tail call i64 @bit_size(ptr noundef %0) #8
  %.not19 = icmp slt i64 %10, %16
  br i1 %.not19, label %19, label %17

17:                                               ; preds = %15, %8
  %18 = tail call i32 (ptr, ...) @error(ptr noundef nonnull @.str.38) #8
  br label %33

19:                                               ; preds = %15
  store ptr %12, ptr %2, align 8
  %20 = tail call i64 @bit_size(ptr noundef %0) #8
  %21 = tail call ptr @bit_alloc(i64 noundef %20) #8
  store ptr %21, ptr %5, align 8
  %22 = zext nneg i32 %1 to i64
  %23 = tail call i64 @bit_size(ptr noundef %21) #8
  %24 = icmp sgt i64 %23, %22
  br i1 %24, label %.lr.ph, label %._crit_edge

.lr.ph:                                           ; preds = %19
  %25 = trunc i64 %10 to i32
  br label %26

._crit_edge:                                      ; preds = %26, %19
  tail call void @bit_and(ptr noundef %0, ptr noundef %21) #8
  %.not20 = icmp eq ptr %21, null
  br i1 %.not20, label %33, label %32

26:                                               ; preds = %.lr.ph, %26
  %27 = phi i64 [ %22, %.lr.ph ], [ %29, %26 ]
  %.021 = phi i32 [ %1, %.lr.ph ], [ %28, %26 ]
  tail call void @bit_set(ptr noundef %21, i64 noundef %27) #8
  %28 = add i32 %.021, %25
  %29 = sext i32 %28 to i64
  %30 = tail call i64 @bit_size(ptr noundef %21) #8
  %31 = icmp sgt i64 %30, %29
  br i1 %31, label %26, label %._crit_edge, !llvm.loop !16

32:                                               ; preds = %._crit_edge
  call void @slurm_bit_free(ptr noundef nonnull %5) #8
  br label %33

33:                                               ; preds = %._crit_edge, %32, %3, %17
  %.016 = phi i32 [ -1, %17 ], [ 0, %3 ], [ 0, %32 ], [ 0, %._crit_edge ]
  call void @llvm.lifetime.end.p0(i64 8, ptr nonnull %5) #8
  call void @llvm.lifetime.end.p0(i64 8, ptr nonnull %4) #8
  ret i32 %.016
}